; Function Attrs: mustprogress uwtable
define hidden void @_ZN13defined_names4pushEv(ptr noundef nonnull readonly align 8 captures(none) dereferenceable(16) %0) local_unnamed_addr #3 align 2 {
  %2 = load ptr, ptr %0, align 8, !tbaa !225
  %3 = getelementptr inbounds nuw i8, ptr %2, i64 120
  %4 = getelementptr inbounds nuw i8, ptr %2, i64 80
  %5 = load ptr, ptr %4, align 8, !tbaa !20
  %6 = icmp eq ptr %5, null
  br i1 %6, label %_ZNK15ref_vector_coreI4expr19ref_manager_wrapperIS0_11ast_managerEE4sizeEv.exit.i, label %7

7:                                                ; preds = %1
  %8 = getelementptr inbounds i8, ptr %5, i64 -4
  %9 = load i32, ptr %8, align 4, !tbaa !30
  br label %_ZNK15ref_vector_coreI4expr19ref_manager_wrapperIS0_11ast_managerEE4sizeEv.exit.i

_ZNK15ref_vector_coreI4expr19ref_manager_wrapperIS0_11ast_managerEE4sizeEv.exit.i: ; preds = %7, %1
  %.0.i.i.i = phi i32 [ %9, %7 ], [ 0, %1 ]
  %10 = load ptr, ptr %3, align 8, !tbaa !24
  %11 = icmp eq ptr %10, null
  br i1 %11, label %18, label %12

12:                                               ; preds = %_ZNK15ref_vector_coreI4expr19ref_manager_wrapperIS0_11ast_managerEE4sizeEv.exit.i
  %13 = getelementptr inbounds i8, ptr %10, i64 -4
  %14 = load i32, ptr %13, align 4, !tbaa !30
  %15 = getelementptr inbounds i8, ptr %10, i64 -8
  %16 = load i32, ptr %15, align 4, !tbaa !30
  %17 = icmp eq i32 %14, %16
  br i1 %17, label %18, label %_ZN13defined_names4impl10push_scopeEv.exit

18:                                               ; preds = %12, %_ZNK15ref_vector_coreI4expr19ref_manager_wrapperIS0_11ast_managerEE4sizeEv.exit.i
  tail call void @_ZN6vectorIjLb0EjE13expand_vectorEv(ptr noundef nonnull align 8 dereferenceable(8) %3)
  %.pre.i.i = load ptr, ptr %3, align 8, !tbaa !24
  %.phi.trans.insert.i.i = getelementptr inbounds i8, ptr %.pre.i.i, i64 -4
  %.pre2.i.i = load i32, ptr %.phi.trans.insert.i.i, align 4, !tbaa !30
  br label %_ZN13defined_names4impl10push_scopeEv.exit

_ZN13defined_names4impl10push_scopeEv.exit:       ; preds = %12, %18
  %19 = phi i32 [ %.pre2.i.i, %18 ], [ %14, %12 ]
  %20 = phi ptr [ %.pre.i.i, %18 ], [ %10, %12 ]
  %21 = getelementptr inbounds i8, ptr %20, i64 -4
  %22 = zext i32 %19 to i64
  %23 = getelementptr inbounds nuw i32, ptr %20, i64 %22
  store i32 %.0.i.i.i, ptr %23, align 4, !tbaa !30
  %24 = add i32 %19, 1
  store i32 %24, ptr %21, align 4, !tbaa !30
  %25 = getelementptr inbounds nuw i8, ptr %0, i64 8
  %26 = load ptr, ptr %25, align 8, !tbaa !229
  %27 = getelementptr inbounds nuw i8, ptr %26, i64 120
  %28 = getelementptr inbounds nuw i8, ptr %26, i64 80
  %29 = load ptr, ptr %28, align 8, !tbaa !20
  %30 = icmp eq ptr %29, null
  br i1 %30, label %_ZNK15ref_vector_coreI4expr19ref_manager_wrapperIS0_11ast_managerEE4sizeEv.exit.i1, label %31

31:                                               ; preds = %_ZN13defined_names4impl10push_scopeEv.exit
  %32 = getelementptr inbounds i8, ptr %29, i64 -4
  %33 = load i32, ptr %32, align 4, !tbaa !30
  br label %_ZNK15ref_vector_coreI4expr19ref_manager_wrapperIS0_11ast_managerEE4sizeEv.exit.i1

_ZNK15ref_vector_coreI4expr19ref_manager_wrapperIS0_11ast_managerEE4sizeEv.exit.i1: ; preds = %31, %_ZN13defined_names4impl10push_scopeEv.exit
  %.0.i.i.i2 = phi i32 [ %33, %31 ], [ 0, %_ZN13defined_names4impl10push_scopeEv.exit ]
  %34 = load ptr, ptr %27, align 8, !tbaa !24
  %35 = icmp eq ptr %34, null
  br i1 %35, label %42, label %36

36:                                               ; preds = %_ZNK15ref_vector_coreI4expr19ref_manager_wrapperIS0_11ast_managerEE4sizeEv.exit.i1
  %37 = getelementptr inbounds i8, ptr %34, i64 -4
  %38 = load i32, ptr %37, align 4, !tbaa !30
  %39 = getelementptr inbounds i8, ptr %34, i64 -8
  %40 = load i32, ptr %39, align 4, !tbaa !30
  %41 = icmp eq i32 %38, %40
  br i1 %41, label %42, label %_ZN13defined_names4impl10push_scopeEv.exit6

42:                                               ; preds = %36, %_ZNK15ref_vector_coreI4expr19ref_manager_wrapperIS0_11ast_managerEE4sizeEv.exit.i1
  tail call void @_ZN6vectorIjLb0EjE13expand_vectorEv(ptr noundef nonnull align 8 dereferenceable(8) %27)
  %.pre.i.i3 = load ptr, ptr %27, align 8, !tbaa !24
  %.phi.trans.insert.i.i4 = getelementptr inbounds i8, ptr %.pre.i.i3, i64 -4
  %.pre2.i.i5 = load i32, ptr %.phi.trans.insert.i.i4, align 4, !tbaa !30
  br label %_ZN13defined_names4impl10push_scopeEv.exit6

_ZN13defined_names4impl10push_scopeEv.exit6:      ; preds = %36, %42
  %43 = phi i32 [ %.pre2.i.i5, %42 ], [ %38, %36 ]
  %44 = phi ptr [ %.pre.i.i3, %42 ], [ %34, %36 ]
  %45 = getelementptr inbounds i8, ptr %44, i64 -4
  %46 = zext i32 %43 to i64
  %47 = getelementptr inbounds nuw i32, ptr %44, i64 %46
  store i32 %.0.i.i.i2, ptr %47, align 4, !tbaa !30
  %48 = add i32 %43, 1
  store i32 %48, ptr %45, align 4, !tbaa !30
  ret void
}